target datalayout = "e-m:e-p270:32:32-p271:32:32-p272:64:64-i64:64-i128:128-f80:128-n8:16:32:64-S128"
target triple = "x86_64-pc-linux-gnu"

%struct._snmp_usm_params_t = type { i32, i32, i32, i32, i32, i32, ptr, ptr, ptr, ptr, ptr, ptr, ptr, i32 }
%struct._asn1_ctx_t = type { i32, i32, i8, ptr, ptr, ptr, ptr, ptr, %struct.anon.0, %struct.anon.3, %struct.anon.4, ptr }
%struct.anon.0 = type { i32, i8, i8, i8, ptr, ptr, i32, i32, ptr, ptr, ptr, %union.anon }
%union.anon = type { %struct.anon.1 }
%struct.anon.1 = type { ptr }
%struct.anon.3 = type { ptr, ptr, ptr }
%struct.anon.4 = type { i32, i8, ptr, i32, i32, ptr, ptr, ptr, %union.anon.5 }
%union.anon.5 = type { %struct.anon.6 }
%struct.anon.6 = type { ptr }

@usm_p = internal global %struct._snmp_usm_params_t zeroinitializer, align 8

; Function Attrs: nounwind uwtable
define internal i32 @dissect_snmp_T_msgAuthenticationParameters(i1 noundef zeroext %0, ptr noundef %1, i32 noundef %2, ptr noundef %3, ptr noundef %4, i32 noundef %5) #0 {
  %7 = alloca i8, align 1
  %8 = alloca ptr, align 8
  %9 = alloca i32, align 4
  %10 = alloca ptr, align 8
  %11 = alloca ptr, align 8
  %12 = alloca i32, align 4
  %13 = zext i1 %0 to i8
  store i8 %13, ptr %7, align 1
  store ptr %1, ptr %8, align 8
  store i32 %2, ptr %9, align 4
  store ptr %3, ptr %10, align 8
  store ptr %4, ptr %11, align 8
  store i32 %5, ptr %12, align 4
  %14 = load ptr, ptr %10, align 8
  %15 = load ptr, ptr %11, align 8
  %16 = load ptr, ptr %8, align 8
  %17 = load i32, ptr %9, align 4
  %18 = load i32, ptr %12, align 4
  %19 = getelementptr inbounds %struct._snmp_usm_params_t, ptr @usm_p, i32 0, i32 9
  %20 = call i32 @dissect_ber_octet_string(i1 noundef zeroext false, ptr noundef %14, ptr noundef %15, ptr noundef %16, i32 noundef %17, i32 noundef %18, ptr noundef %19)
  store i32 %20, ptr %9, align 4
  %21 = getelementptr inbounds %struct._snmp_usm_params_t, ptr @usm_p, i32 0, i32 9
  %22 = load ptr, ptr %21, align 8
  %23 = icmp ne ptr %22, null
  br i1 %23, label %24, label %33

24:                                               ; preds = %6
  %25 = load ptr, ptr %10, align 8
  %26 = getelementptr inbounds %struct._asn1_ctx_t, ptr %25, i32 0, i32 4
  %27 = load ptr, ptr %26, align 8
  %28 = getelementptr inbounds %struct._snmp_usm_params_t, ptr @usm_p, i32 0, i32 8
  store ptr %27, ptr %28, align 8
  %29 = getelementptr inbounds %struct._snmp_usm_params_t, ptr @usm_p, i32 0, i32 9
  %30 = load ptr, ptr %29, align 8
  %31 = call i32 @tvb_offset_from_real_beginning(ptr noundef %30)
  %32 = getelementptr inbounds %struct._snmp_usm_params_t, ptr @usm_p, i32 0, i32 3
  store i32 %31, ptr %32, align 4
  br label %33

33:                                               ; preds = %24, %6
  %34 = load i32, ptr %9, align 4
  ret i32 %34
}