; Function Attrs: nounwind uwtable
define internal i32 @dissect_snmp_T_msgAuthenticationParameters(i1 zeroext %0, ptr noundef %1, i32 noundef %2, ptr noundef %3, ptr noundef %4, i32 noundef %5) #0 {
  %7 = tail call i32 @dissect_ber_octet_string(i1 noundef zeroext false, ptr noundef %3, ptr noundef %4, ptr noundef %1, i32 noundef %2, i32 noundef %5, ptr noundef nonnull getelementptr inbounds nuw (i8, ptr @usm_p, i64 48)) #11
  %8 = load ptr, ptr getelementptr inbounds nuw (i8, ptr @usm_p, i64 48), align 8
  %.not = icmp eq ptr %8, null
  br i1 %.not, label %13, label %9

9:                                                ; preds = %6
  %10 = getelementptr inbounds nuw i8, ptr %3, i64 24
  %11 = load ptr, ptr %10, align 8
  store ptr %11, ptr getelementptr inbounds nuw (i8, ptr @usm_p, i64 40), align 8
  %12 = tail call i32 @tvb_offset_from_real_beginning(ptr noundef nonnull %8) #11
  store i32 %12, ptr getelementptr inbounds nuw (i8, ptr @usm_p, i64 12), align 4
  br label %13

13:                                               ; preds = %9, %6
  ret i32 %7
}